target datalayout = "e-m:e-p270:32:32-p271:32:32-p272:64:64-i64:64-i128:128-f80:128-n8:16:32:64-S128"
target triple = "x86_64-pc-linux-gnu"

%struct.x509_st = type { ptr, ptr, ptr, i32, i32, ptr, %struct.crypto_ex_data_st, i64, i64, i64, i64, i64, i64, ptr, ptr, ptr, ptr, ptr, ptr, [20 x i8], ptr }
%struct.crypto_ex_data_st = type { ptr }

; Function Attrs: nounwind uwtable
define hidden i32 @X509_check_issued(ptr noundef %0, ptr noundef %1) #0 {
  %3 = alloca i32, align 4
  %4 = alloca ptr, align 8
  %5 = alloca ptr, align 8
  %6 = alloca i32, align 4
  %7 = alloca i32, align 4
  store ptr %0, ptr %4, align 8, !tbaa !6
  store ptr %1, ptr %5, align 8, !tbaa !6
  %8 = load ptr, ptr %4, align 8, !tbaa !6
  %9 = call ptr @X509_get_subject_name(ptr noundef %8)
  %10 = load ptr, ptr %5, align 8, !tbaa !6
  %11 = call ptr @X509_get_issuer_name(ptr noundef %10)
  %12 = call i32 @X509_NAME_cmp(ptr noundef %9, ptr noundef %11)
  %13 = icmp ne i32 %12, 0
  br i1 %13, label %14, label %15

14:                                               ; preds = %2
  store i32 29, ptr %3, align 4
  br label %71

15:                                               ; preds = %2
  %16 = load ptr, ptr %4, align 8, !tbaa !6
  call void @x509v3_cache_extensions(ptr noundef %16)
  %17 = load ptr, ptr %5, align 8, !tbaa !6
  call void @x509v3_cache_extensions(ptr noundef %17)
  %18 = load ptr, ptr %5, align 8, !tbaa !6
  %19 = getelementptr inbounds nuw %struct.x509_st, ptr %18, i32 0, i32 14
  %20 = load ptr, ptr %19, align 8, !tbaa !67
  %21 = icmp ne ptr %20, null
  br i1 %21, label %22, label %36

22:                                               ; preds = %15
  call void @llvm.lifetime.start.p0(i64 4, ptr %6) #7
  %23 = load ptr, ptr %4, align 8, !tbaa !6
  %24 = load ptr, ptr %5, align 8, !tbaa !6
  %25 = getelementptr inbounds nuw %struct.x509_st, ptr %24, i32 0, i32 14
  %26 = load ptr, ptr %25, align 8, !tbaa !67
  %27 = call i32 @X509_check_akid(ptr noundef %23, ptr noundef %26)
  store i32 %27, ptr %6, align 4, !tbaa !11
  %28 = load i32, ptr %6, align 4, !tbaa !11
  %29 = icmp ne i32 %28, 0
  br i1 %29, label %30, label %32

30:                                               ; preds = %22
  %31 = load i32, ptr %6, align 4, !tbaa !11
  store i32 %31, ptr %3, align 4
  store i32 1, ptr %7, align 4
  br label %33

32:                                               ; preds = %22
  store i32 0, ptr %7, align 4
  br label %33

33:                                               ; preds = %32, %30
  call void @llvm.lifetime.end.p0(i64 4, ptr %6) #7
  %34 = load i32, ptr %7, align 4
  switch i32 %34, label %73 [
    i32 0, label %35
    i32 1, label %71
  ]

35:                                               ; preds = %33
  br label %36

36:                                               ; preds = %35, %15
  %37 = load ptr, ptr %5, align 8, !tbaa !6
  %38 = getelementptr inbounds nuw %struct.x509_st, ptr %37, i32 0, i32 9
  %39 = load i64, ptr %38, align 8, !tbaa !13
  %40 = and i64 %39, 1024
  %41 = icmp ne i64 %40, 0
  br i1 %41, label %42, label %56

42:                                               ; preds = %36
  %43 = load ptr, ptr %4, align 8, !tbaa !6
  %44 = getelementptr inbounds nuw %struct.x509_st, ptr %43, i32 0, i32 9
  %45 = load i64, ptr %44, align 8, !tbaa !13
  %46 = and i64 %45, 2
  %47 = icmp ne i64 %46, 0
  br i1 %47, label %48, label %55

48:                                               ; preds = %42
  %49 = load ptr, ptr %4, align 8, !tbaa !6
  %50 = getelementptr inbounds nuw %struct.x509_st, ptr %49, i32 0, i32 10
  %51 = load i64, ptr %50, align 8, !tbaa !58
  %52 = and i64 %51, 128
  %53 = icmp ne i64 %52, 0
  br i1 %53, label %55, label %54

54:                                               ; preds = %48
  store i32 39, ptr %3, align 4
  br label %71

55:                                               ; preds = %48, %42
  br label %70

56:                                               ; preds = %36
  %57 = load ptr, ptr %4, align 8, !tbaa !6
  %58 = getelementptr inbounds nuw %struct.x509_st, ptr %57, i32 0, i32 9
  %59 = load i64, ptr %58, align 8, !tbaa !13
  %60 = and i64 %59, 2
  %61 = icmp ne i64 %60, 0
  br i1 %61, label %62, label %69

62:                                               ; preds = %56
  %63 = load ptr, ptr %4, align 8, !tbaa !6
  %64 = getelementptr inbounds nuw %struct.x509_st, ptr %63, i32 0, i32 10
  %65 = load i64, ptr %64, align 8, !tbaa !58
  %66 = and i64 %65, 4
  %67 = icmp ne i64 %66, 0
  br i1 %67, label %69, label %68

68:                                               ; preds = %62
  store i32 32, ptr %3, align 4
  br label %71

69:                                               ; preds = %62, %56
  br label %70

70:                                               ; preds = %69, %55
  store i32 0, ptr %3, align 4
  br label %71

71:                                               ; preds = %70, %68, %54, %33, %14
  %72 = load i32, ptr %3, align 4
  ret i32 %72

73:                                               ; preds = %33
  unreachable
}